; Function Attrs: nounwind uwtable
define internal fastcc void @cdxl_decode_ham8(ptr noundef readonly captures(none) %0, ptr noundef readonly captures(none) %1) unnamed_addr #1 {
  %3 = alloca [64 x i32], align 16
  %4 = load ptr, ptr %0, align 8, !tbaa !30
  call void @llvm.lifetime.start.p0(i64 256, ptr nonnull %3) #9
  %5 = getelementptr inbounds nuw i8, ptr %0, i64 56
  %6 = load ptr, ptr %5, align 8, !tbaa !46
  %7 = load ptr, ptr %1, align 8, !tbaa !47
  %8 = getelementptr inbounds nuw i8, ptr %0, i64 12
  %9 = load i32, ptr %8, align 4, !tbaa !35
  %10 = icmp eq i32 %9, 1
  %11 = getelementptr inbounds nuw i8, ptr %0, i64 32
  %12 = load i32, ptr %11, align 8, !tbaa !38
  br i1 %10, label %.preheader.i, label %.preheader26.i

.preheader26.i:                                   ; preds = %2
  %13 = icmp sgt i32 %12, 2
  br i1 %13, label %.lr.ph.i, label %import_palette.exit

.lr.ph.i:                                         ; preds = %.preheader26.i
  %14 = getelementptr inbounds nuw i8, ptr %0, i64 24
  %15 = load ptr, ptr %14, align 8, !tbaa !39
  %16 = udiv i32 %12, 3
  %17 = zext nneg i32 %16 to i64
  br label %41

.preheader.i:                                     ; preds = %2
  %18 = icmp sgt i32 %12, 1
  br i1 %18, label %.lr.ph30.i, label %import_palette.exit

.lr.ph30.i:                                       ; preds = %.preheader.i
  %19 = getelementptr inbounds nuw i8, ptr %0, i64 24
  %20 = load ptr, ptr %19, align 8, !tbaa !39
  %21 = lshr i32 %12, 1
  %22 = zext nneg i32 %21 to i64
  br label %23

23:                                               ; preds = %23, %.lr.ph30.i
  %indvars.iv33.i = phi i64 [ 0, %.lr.ph30.i ], [ %indvars.iv.next34.i, %23 ]
  %24 = shl nuw nsw i64 %indvars.iv33.i, 1
  %25 = getelementptr inbounds nuw i8, ptr %20, i64 %24
  %26 = load i16, ptr %25, align 1, !tbaa !34
  %27 = tail call i16 @llvm.bswap.i16(i16 %26)
  %28 = zext i16 %27 to i32
  %29 = lshr i32 %28, 8
  %30 = and i32 %29, 15
  %31 = lshr i32 %28, 4
  %32 = and i32 %31, 15
  %33 = and i32 %28, 15
  %34 = mul nuw nsw i32 %33, 17
  %35 = mul nuw nsw i32 %30, 1114112
  %36 = mul nuw nsw i32 %32, 4352
  %37 = or disjoint i32 %35, %36
  %38 = or disjoint i32 %37, %34
  %39 = or disjoint i32 %38, -16777216
  %40 = getelementptr inbounds nuw i32, ptr %3, i64 %indvars.iv33.i
  store i32 %39, ptr %40, align 4, !tbaa !34
  %indvars.iv.next34.i = add nuw nsw i64 %indvars.iv33.i, 1
  %exitcond66.not = icmp eq i64 %indvars.iv.next34.i, %22
  br i1 %exitcond66.not, label %import_palette.exit, label %23, !llvm.loop !49

41:                                               ; preds = %41, %.lr.ph.i
  %indvars.iv.i = phi i64 [ 0, %.lr.ph.i ], [ %indvars.iv.next.i, %41 ]
  %42 = mul nuw nsw i64 %indvars.iv.i, 3
  %43 = getelementptr inbounds nuw i8, ptr %15, i64 %42
  %44 = load i8, ptr %43, align 1, !tbaa !34
  %45 = zext i8 %44 to i32
  %46 = shl nuw nsw i32 %45, 16
  %47 = getelementptr inbounds nuw i8, ptr %43, i64 1
  %48 = load i8, ptr %47, align 1, !tbaa !34
  %49 = zext i8 %48 to i32
  %50 = shl nuw nsw i32 %49, 8
  %51 = getelementptr inbounds nuw i8, ptr %43, i64 2
  %52 = load i8, ptr %51, align 1, !tbaa !34
  %53 = zext i8 %52 to i32
  %54 = or disjoint i32 %46, %50
  %55 = or disjoint i32 %54, %53
  %56 = or disjoint i32 %55, -16777216
  %57 = getelementptr inbounds nuw i32, ptr %3, i64 %indvars.iv.i
  store i32 %56, ptr %57, align 4, !tbaa !34
  %indvars.iv.next.i = add nuw nsw i64 %indvars.iv.i, 1
  %exitcond.not = icmp eq i64 %indvars.iv.next.i, %17
  br i1 %exitcond.not, label %import_palette.exit, label %41, !llvm.loop !51

import_palette.exit:                              ; preds = %41, %23, %.preheader26.i, %.preheader.i
  %58 = getelementptr inbounds nuw i8, ptr %4, i64 112
  %59 = load i32, ptr %58, align 8, !tbaa !42
  %60 = sext i32 %59 to i64
  tail call fastcc void @import_format(ptr noundef nonnull %0, i64 noundef %60, ptr noundef %6)
  %61 = getelementptr inbounds nuw i8, ptr %4, i64 116
  %62 = load i32, ptr %61, align 4, !tbaa !44
  %63 = icmp sgt i32 %62, 0
  br i1 %63, label %.lr.ph61, label %._crit_edge62

.lr.ph61:                                         ; preds = %import_palette.exit
  %64 = load i32, ptr %3, align 16, !tbaa !48
  %65 = and i32 %64, 16711680
  %66 = and i32 %64, 65280
  %67 = and i32 %64, 255
  %68 = getelementptr inbounds nuw i8, ptr %1, i64 64
  %69 = load i32, ptr %58, align 8, !tbaa !42
  %70 = icmp sgt i32 %69, 0
  br i1 %70, label %.lr.ph61.split, label %._crit_edge62

.lr.ph61.split:                                   ; preds = %.lr.ph61, %._crit_edge
  %71 = phi i32 [ %115, %._crit_edge ], [ %62, %.lr.ph61 ]
  %72 = phi i32 [ %116, %._crit_edge ], [ %69, %.lr.ph61 ]
  %.060 = phi i32 [ %120, %._crit_edge ], [ 0, %.lr.ph61 ]
  %.04459 = phi ptr [ %119, %._crit_edge ], [ %7, %.lr.ph61 ]
  %.04558 = phi ptr [ %.146.lcssa, %._crit_edge ], [ %6, %.lr.ph61 ]
  %73 = icmp sgt i32 %72, 0
  br i1 %73, label %.lr.ph, label %._crit_edge

.lr.ph:                                           ; preds = %.lr.ph61.split, %100
  %indvars.iv = phi i64 [ %indvars.iv.next, %100 ], [ 0, %.lr.ph61.split ]
  %.04356 = phi i32 [ %.1, %100 ], [ %65, %.lr.ph61.split ]
  %.14655 = phi ptr [ %74, %100 ], [ %.04558, %.lr.ph61.split ]
  %.04754 = phi i32 [ %.148, %100 ], [ %67, %.lr.ph61.split ]
  %.04953 = phi i32 [ %.150, %100 ], [ %66, %.lr.ph61.split ]
  %74 = getelementptr inbounds nuw i8, ptr %.14655, i64 1
  %75 = load i8, ptr %.14655, align 1, !tbaa !34
  %76 = lshr i8 %75, 6
  %77 = and i8 %75, 63
  switch i8 %76, label %default.unreachable68 [
    i8 0, label %78
    i8 1, label %85
    i8 2, label %90
    i8 3, label %95
  ]

78:                                               ; preds = %.lr.ph
  %79 = zext nneg i8 %77 to i64
  %80 = getelementptr inbounds nuw [64 x i32], ptr %3, i64 0, i64 %79
  %81 = load i32, ptr %80, align 4, !tbaa !48
  %82 = and i32 %81, 16711680
  %83 = and i32 %81, 65280
  %84 = and i32 %81, 255
  br label %100

85:                                               ; preds = %.lr.ph
  %86 = shl i8 %75, 2
  %87 = zext i8 %86 to i32
  %88 = and i32 %.04754, 3
  %89 = or disjoint i32 %88, %87
  br label %100

90:                                               ; preds = %.lr.ph
  %91 = zext nneg i8 %77 to i32
  %92 = shl nuw nsw i32 %91, 18
  %93 = and i32 %.04356, 196608
  %94 = or disjoint i32 %92, %93
  br label %100

95:                                               ; preds = %.lr.ph
  %96 = zext nneg i8 %77 to i32
  %97 = shl nuw nsw i32 %96, 10
  %98 = and i32 %.04953, 768
  %99 = or disjoint i32 %97, %98
  br label %100

default.unreachable68:                            ; preds = %.lr.ph
  unreachable

100:                                              ; preds = %78, %85, %90, %95
  %.150 = phi i32 [ %99, %95 ], [ %.04953, %90 ], [ %.04953, %85 ], [ %83, %78 ]
  %.148 = phi i32 [ %.04754, %95 ], [ %.04754, %90 ], [ %89, %85 ], [ %84, %78 ]
  %.1 = phi i32 [ %.04356, %95 ], [ %94, %90 ], [ %.04356, %85 ], [ %82, %78 ]
  %101 = or i32 %.148, %.150
  %102 = or i32 %101, %.1
  %103 = trunc i32 %102 to i8
  %104 = mul nuw nsw i64 %indvars.iv, 3
  %105 = getelementptr inbounds nuw i8, ptr %.04459, i64 %104
  store i8 %103, ptr %105, align 1, !tbaa !34
  %106 = lshr i32 %102, 8
  %107 = trunc i32 %106 to i8
  %108 = getelementptr inbounds nuw i8, ptr %105, i64 1
  store i8 %107, ptr %108, align 1, !tbaa !34
  %109 = lshr i32 %102, 16
  %110 = trunc nuw i32 %109 to i8
  %111 = getelementptr inbounds nuw i8, ptr %105, i64 2
  store i8 %110, ptr %111, align 1, !tbaa !34
  %indvars.iv.next = add nuw nsw i64 %indvars.iv, 1
  %112 = load i32, ptr %58, align 8, !tbaa !42
  %113 = sext i32 %112 to i64
  %114 = icmp slt i64 %indvars.iv.next, %113
  br i1 %114, label %.lr.ph, label %._crit_edge.loopexit, !llvm.loop !52

._crit_edge.loopexit:                             ; preds = %100
  %.pre = load i32, ptr %61, align 4, !tbaa !44
  br label %._crit_edge

._crit_edge:                                      ; preds = %._crit_edge.loopexit, %.lr.ph61.split
  %115 = phi i32 [ %71, %.lr.ph61.split ], [ %.pre, %._crit_edge.loopexit ]
  %116 = phi i32 [ %72, %.lr.ph61.split ], [ %112, %._crit_edge.loopexit ]
  %.146.lcssa = phi ptr [ %.04558, %.lr.ph61.split ], [ %74, %._crit_edge.loopexit ]
  %117 = load i32, ptr %68, align 8, !tbaa !48
  %118 = sext i32 %117 to i64
  %119 = getelementptr inbounds i8, ptr %.04459, i64 %118
  %120 = add nuw nsw i32 %.060, 1
  %121 = icmp slt i32 %120, %115
  br i1 %121, label %.lr.ph61.split, label %._crit_edge62, !llvm.loop !53

._crit_edge62:                                    ; preds = %._crit_edge, %.lr.ph61, %import_palette.exit
  call void @llvm.lifetime.end.p0(i64 256, ptr nonnull %3) #9
  ret void
}